; Function Attrs: mustprogress uwtable
define hidden void @_ZN2cv8tinyxml27StrPair6SetStrEPKci(ptr noundef nonnull align 8 captures(none) dereferenceable(24) initializes((16, 24)) %0, ptr noundef readonly captures(none) %1, i32 noundef %2) local_unnamed_addr #4 align 2 {
  %4 = load i32, ptr %0, align 8, !tbaa !3
  %5 = and i32 %4, 512
  %.not.i = icmp eq i32 %5, 0
  br i1 %.not.i, label %_ZN2cv8tinyxml27StrPair5ResetEv.exit, label %6

6:                                                ; preds = %3
  %7 = getelementptr inbounds nuw i8, ptr %0, i64 8
  %8 = load ptr, ptr %7, align 8, !tbaa !10
  %9 = icmp eq ptr %8, null
  br i1 %9, label %_ZN2cv8tinyxml27StrPair5ResetEv.exit, label %10

10:                                               ; preds = %6
  tail call void @_ZdaPv(ptr noundef nonnull %8) #23
  br label %_ZN2cv8tinyxml27StrPair5ResetEv.exit

_ZN2cv8tinyxml27StrPair5ResetEv.exit:             ; preds = %3, %6, %10
  store i32 0, ptr %0, align 8, !tbaa !3
  %11 = getelementptr inbounds nuw i8, ptr %0, i64 8
  tail call void @llvm.memset.p0.i64(ptr noundef nonnull align 8 dereferenceable(16) %11, i8 0, i64 16, i1 false)
  %12 = tail call i64 @strlen(ptr noundef nonnull dereferenceable(1) %1) #26
  %13 = add i64 %12, 1
  %14 = tail call noalias noundef nonnull ptr @_Znam(i64 noundef %13) #27
  store ptr %14, ptr %11, align 8, !tbaa !10
  tail call void @llvm.memcpy.p0.p0.i64(ptr nonnull align 1 %14, ptr nonnull align 1 %1, i64 %13, i1 false)
  %15 = getelementptr inbounds nuw i8, ptr %14, i64 %12
  %16 = getelementptr inbounds nuw i8, ptr %0, i64 16
  store ptr %15, ptr %16, align 8, !tbaa !11
  %17 = or i32 %2, 512
  store i32 %17, ptr %0, align 8, !tbaa !3
  ret void
}